; Function Attrs: mustprogress nofree norecurse nosync nounwind willreturn memory(argmem: read) uwtable
define noundef zeroext i1 @_ZNK8QuantLib15BespokeCalendar4Impl9isWeekendENS_7WeekdayE(ptr nocapture noundef nonnull readonly align 8 dereferenceable(144) %this, i32 noundef %w) unnamed_addr #2 align 2 {
entry:
  %weekend_mask_ = getelementptr inbounds nuw i8, ptr %this, i64 136
  %0 = load i32, ptr %weekend_mask_, align 8, !tbaa !23
  %shl = shl nuw i32 1, %w
  %and = and i32 %0, %shl
  %cmp = icmp ne i32 %and, 0
  ret i1 %cmp
}